; Function Attrs: nounwind uwtable
define ptr @Abc_NtkRestrashRandom(ptr noundef %0) local_unnamed_addr #0 {
  %2 = tail call i32 @Abc_NtkGetChoiceNum(ptr noundef %0) #11
  %.not = icmp eq i32 %2, 0
  br i1 %.not, label %4, label %3

3:                                                ; preds = %1
  %puts = tail call i32 @puts(ptr nonnull dereferenceable(1) @str.4)
  br label %4

4:                                                ; preds = %3, %1
  %5 = tail call ptr @Abc_NtkStartFrom(ptr noundef %0, i32 noundef 3, i32 noundef 3) #11
  %6 = getelementptr inbounds nuw i8, ptr %0, i64 232
  %7 = load ptr, ptr %6, align 8
  %.not.i = icmp eq ptr %7, null
  br i1 %.not.i, label %8, label %Abc_NtkIncrementTravId.exit

8:                                                ; preds = %4
  %9 = getelementptr inbounds nuw i8, ptr %0, i64 224
  %10 = getelementptr i8, ptr %0, i64 32
  %.val.i = load ptr, ptr %10, align 8
  %11 = getelementptr i8, ptr %.val.i, i64 4
  %.val.val.i = load i32, ptr %11, align 4
  %12 = add nsw i32 %.val.val.i, 500
  %13 = load i32, ptr %9, align 8
  %.not.i.i.i = icmp slt i32 %13, %12
  br i1 %.not.i.i.i, label %14, label %Vec_IntGrow.exit.i.i

14:                                               ; preds = %8
  %15 = sext i32 %12 to i64
  %16 = shl nsw i64 %15, 2
  %17 = tail call noalias ptr @malloc(i64 noundef %16) #12
  store ptr %17, ptr %6, align 8
  store i32 %12, ptr %9, align 8
  br label %Vec_IntGrow.exit.i.i

Vec_IntGrow.exit.i.i:                             ; preds = %14, %8
  %18 = icmp sgt i32 %.val.val.i, -500
  br i1 %18, label %.lr.ph.i.i, label %Vec_IntFill.exit.i

.lr.ph.i.i:                                       ; preds = %Vec_IntGrow.exit.i.i
  %wide.trip.count.i.i = zext nneg i32 %12 to i64
  br label %19

19:                                               ; preds = %19, %.lr.ph.i.i
  %indvars.iv.i.i = phi i64 [ 0, %.lr.ph.i.i ], [ %indvars.iv.next.i.i, %19 ]
  %20 = load ptr, ptr %6, align 8
  %21 = getelementptr inbounds nuw i32, ptr %20, i64 %indvars.iv.i.i
  store i32 0, ptr %21, align 4
  %indvars.iv.next.i.i = add nuw nsw i64 %indvars.iv.i.i, 1
  %exitcond.not.i.i = icmp eq i64 %indvars.iv.next.i.i, %wide.trip.count.i.i
  br i1 %exitcond.not.i.i, label %Vec_IntFill.exit.i, label %19, !llvm.loop !6

Vec_IntFill.exit.i:                               ; preds = %19, %Vec_IntGrow.exit.i.i
  %22 = getelementptr inbounds nuw i8, ptr %0, i64 228
  store i32 %12, ptr %22, align 4
  br label %Abc_NtkIncrementTravId.exit

Abc_NtkIncrementTravId.exit:                      ; preds = %4, %Vec_IntFill.exit.i
  %23 = getelementptr inbounds nuw i8, ptr %0, i64 216
  %24 = load i32, ptr %23, align 8
  %25 = add nsw i32 %24, 1
  store i32 %25, ptr %23, align 8
  %26 = getelementptr i8, ptr %0, i64 64
  %.val2426 = load ptr, ptr %26, align 8
  %27 = getelementptr i8, ptr %.val2426, i64 4
  %.val24.val27 = load i32, ptr %27, align 4
  %28 = icmp sgt i32 %.val24.val27, 0
  br i1 %28, label %.lr.ph, label %.critedge

.lr.ph:                                           ; preds = %Abc_NtkIncrementTravId.exit, %.lr.ph
  %indvars.iv = phi i64 [ %indvars.iv.next, %.lr.ph ], [ 0, %Abc_NtkIncrementTravId.exit ]
  %.val2429 = phi ptr [ %.val24, %.lr.ph ], [ %.val2426, %Abc_NtkIncrementTravId.exit ]
  %29 = getelementptr i8, ptr %.val2429, i64 8
  %.val25.val = load ptr, ptr %29, align 8
  %30 = getelementptr inbounds nuw ptr, ptr %.val25.val, i64 %indvars.iv
  %31 = load ptr, ptr %30, align 8
  %.val = load ptr, ptr %31, align 8
  %32 = getelementptr i8, ptr %31, i64 32
  %.val23 = load ptr, ptr %32, align 8
  %33 = getelementptr i8, ptr %.val, i64 32
  %.val.val = load ptr, ptr %33, align 8
  %.val23.val = load i32, ptr %.val23, align 4
  %34 = getelementptr i8, ptr %.val.val, i64 8
  %.val.val.val = load ptr, ptr %34, align 8
  %35 = sext i32 %.val23.val to i64
  %36 = getelementptr inbounds ptr, ptr %.val.val.val, i64 %35
  %37 = load ptr, ptr %36, align 8
  tail call void @Abc_NtkRestrashRandom_rec(ptr noundef %5, ptr noundef %37)
  %indvars.iv.next = add nuw nsw i64 %indvars.iv, 1
  %.val24 = load ptr, ptr %26, align 8
  %38 = getelementptr i8, ptr %.val24, i64 4
  %.val24.val = load i32, ptr %38, align 4
  %39 = sext i32 %.val24.val to i64
  %40 = icmp slt i64 %indvars.iv.next, %39
  br i1 %40, label %.lr.ph, label %.critedge, !llvm.loop !7

.critedge:                                        ; preds = %.lr.ph, %Abc_NtkIncrementTravId.exit
  tail call void @Abc_NtkFinalize(ptr noundef nonnull %0, ptr noundef %5) #11
  %41 = getelementptr inbounds nuw i8, ptr %0, i64 328
  %42 = load ptr, ptr %41, align 8
  %.not20 = icmp eq ptr %42, null
  br i1 %.not20, label %46, label %43

43:                                               ; preds = %.critedge
  %44 = tail call ptr @Abc_NtkDup(ptr noundef nonnull %42) #11
  %45 = getelementptr inbounds nuw i8, ptr %5, i64 328
  store ptr %44, ptr %45, align 8
  br label %46

46:                                               ; preds = %43, %.critedge
  %47 = tail call i32 @Abc_NtkCheck(ptr noundef %5) #11
  %.not21 = icmp eq i32 %47, 0
  br i1 %.not21, label %48, label %49

48:                                               ; preds = %46
  %puts22 = tail call i32 @puts(ptr nonnull dereferenceable(1) @str.13)
  tail call void @Abc_NtkDelete(ptr noundef %5) #11
  br label %49

49:                                               ; preds = %46, %48
  %.018 = phi ptr [ null, %48 ], [ %5, %46 ]
  ret ptr %.018
}